target datalayout = "e-m:e-p270:32:32-p271:32:32-p272:64:64-i64:64-i128:128-f80:128-n8:16:32:64-S128"
target triple = "x86_64-pc-linux-gnu"

@_ZN32pxrInternal_v0_24__pxrReserved__21pxr_double_conversionL17kWhitespaceTable7E = internal constant [6 x i8] c" \0D\0A\09\0B\0C", align 1

; Function Attrs: mustprogress nounwind uwtable
define internal noundef zeroext i1 @_ZN32pxrInternal_v0_24__pxrReserved__21pxr_double_conversionL12isWhitespaceEi(i32 noundef %0) #1 {
  %2 = alloca i1, align 1
  %3 = alloca i32, align 4
  %4 = alloca i32, align 4
  %5 = alloca i32, align 4
  store i32 %0, ptr %3, align 4
  %6 = load i32, ptr %3, align 4
  %7 = icmp slt i32 %6, 128
  br i1 %7, label %8, label %26

8:                                                ; preds = %1
  store i32 0, ptr %4, align 4
  br label %9

9:                                                ; preds = %22, %8
  %10 = load i32, ptr %4, align 4
  %11 = icmp slt i32 %10, 6
  br i1 %11, label %12, label %25

12:                                               ; preds = %9
  %13 = load i32, ptr %4, align 4
  %14 = sext i32 %13 to i64
  %15 = getelementptr inbounds [6 x i8], ptr @_ZN32pxrInternal_v0_24__pxrReserved__21pxr_double_conversionL17kWhitespaceTable7E, i64 0, i64 %14
  %16 = load i8, ptr %15, align 1
  %17 = sext i8 %16 to i32
  %18 = load i32, ptr %3, align 4
  %19 = icmp eq i32 %17, %18
  br i1 %19, label %20, label %21

20:                                               ; preds = %12
  store i1 true, ptr %2, align 1
  br label %45

21:                                               ; preds = %12
  br label %22

22:                                               ; preds = %21
  %23 = load i32, ptr %4, align 4
  %24 = add nsw i32 %23, 1
  store i32 %24, ptr %4, align 4
  br label %9, !llvm.loop !30

25:                                               ; preds = %9
  br label %44

26:                                               ; preds = %1
  store i32 0, ptr %5, align 4
  br label %27

27:                                               ; preds = %40, %26
  %28 = load i32, ptr %5, align 4
  %29 = icmp slt i32 %28, 20
  br i1 %29, label %30, label %43

30:                                               ; preds = %27
  %31 = load i32, ptr %5, align 4
  %32 = sext i32 %31 to i64
  %33 = getelementptr inbounds [20 x i16], ptr @_ZN32pxrInternal_v0_24__pxrReserved__21pxr_double_conversionL18kWhitespaceTable16E, i64 0, i64 %32
  %34 = load i16, ptr %33, align 2
  %35 = zext i16 %34 to i32
  %36 = load i32, ptr %3, align 4
  %37 = icmp eq i32 %35, %36
  br i1 %37, label %38, label %39

38:                                               ; preds = %30
  store i1 true, ptr %2, align 1
  br label %45

39:                                               ; preds = %30
  br label %40

40:                                               ; preds = %39
  %41 = load i32, ptr %5, align 4
  %42 = add nsw i32 %41, 1
  store i32 %42, ptr %5, align 4
  br label %27, !llvm.loop !31

43:                                               ; preds = %27
  br label %44

44:                                               ; preds = %43, %25
  store i1 false, ptr %2, align 1
  br label %45

45:                                               ; preds = %44, %38, %20
  %46 = load i1, ptr %2, align 1
  ret i1 %46
}

; Function Attrs: mustprogress nounwind uwtable
define internal noundef zeroext i1 @_ZN32pxrInternal_v0_24__pxrReserved__21pxr_double_conversionL17AdvanceToNonspaceIPKtEEbPT_S4_(ptr noundef %0, ptr noundef %1) #1 {
  %3 = alloca i1, align 1
  %4 = alloca ptr, align 8
  %5 = alloca ptr, align 8
  store ptr %0, ptr %4, align 8
  store ptr %1, ptr %5, align 8
  br label %6

6:                                                ; preds = %18, %2
  %7 = load ptr, ptr %4, align 8
  %8 = load ptr, ptr %7, align 8
  %9 = load ptr, ptr %5, align 8
  %10 = icmp ne ptr %8, %9
  br i1 %10, label %11, label %22

11:                                               ; preds = %6
  %12 = load ptr, ptr %4, align 8
  %13 = load ptr, ptr %12, align 8
  %14 = load i16, ptr %13, align 2
  %15 = zext i16 %14 to i32
  %16 = call noundef zeroext i1 @_ZN32pxrInternal_v0_24__pxrReserved__21pxr_double_conversionL12isWhitespaceEi(i32 noundef %15)
  br i1 %16, label %18, label %17

17:                                               ; preds = %11
  store i1 true, ptr %3, align 1
  br label %23

18:                                               ; preds = %11
  %19 = load ptr, ptr %4, align 8
  %20 = load ptr, ptr %19, align 8
  %21 = getelementptr inbounds i16, ptr %20, i32 1
  store ptr %21, ptr %19, align 8
  br label %6, !llvm.loop !37

22:                                               ; preds = %6
  store i1 false, ptr %3, align 1
  br label %23

23:                                               ; preds = %22, %17
  %24 = load i1, ptr %3, align 1
  ret i1 %24
}